target datalayout = "e-m:e-p270:32:32-p271:32:32-p272:64:64-i64:64-i128:128-f80:128-n8:16:32:64-S128"
target triple = "x86_64-pc-linux-gnu"

%struct.epl_datatype = type { ptr, ptr, i32, i8 }

; Function Attrs: nounwind uwtable
define hidden ptr @epl_type_to_hf(ptr noundef %0) #0 {
  %2 = alloca ptr, align 8
  %3 = alloca ptr, align 8
  %4 = alloca ptr, align 8
  store ptr %0, ptr %3, align 8
  store ptr @epl_datatype, ptr %4, align 8
  br label %5

5:                                                ; preds = %20, %1
  %6 = load ptr, ptr %4, align 8
  %7 = getelementptr inbounds %struct.epl_datatype, ptr %6, i32 0, i32 0
  %8 = load ptr, ptr %7, align 8
  %9 = icmp ne ptr %8, null
  br i1 %9, label %10, label %23

10:                                               ; preds = %5
  %11 = load ptr, ptr %3, align 8
  %12 = load ptr, ptr %4, align 8
  %13 = getelementptr inbounds %struct.epl_datatype, ptr %12, i32 0, i32 0
  %14 = load ptr, ptr %13, align 8
  %15 = call i32 @strcmp(ptr noundef %11, ptr noundef %14) #8
  %16 = icmp eq i32 %15, 0
  br i1 %16, label %17, label %19

17:                                               ; preds = %10
  %18 = load ptr, ptr %4, align 8
  store ptr %18, ptr %2, align 8
  br label %24

19:                                               ; preds = %10
  br label %20

20:                                               ; preds = %19
  %21 = load ptr, ptr %4, align 8
  %22 = getelementptr %struct.epl_datatype, ptr %21, i32 1
  store ptr %22, ptr %4, align 8
  br label %5, !llvm.loop !4

23:                                               ; preds = %5
  store ptr null, ptr %2, align 8
  br label %24

24:                                               ; preds = %23, %17
  %25 = load ptr, ptr %2, align 8
  ret ptr %25
}