; Function Attrs: nofree nounwind memory(read, inaccessiblemem: none) uwtable
define hidden noundef ptr @epl_type_to_hf(ptr noundef readonly captures(none) %0) local_unnamed_addr #0 {
  br label %2

2:                                                ; preds = %1, %6
  %3 = phi ptr [ @.str.456, %1 ], [ %8, %6 ]
  %.08 = phi ptr [ @epl_datatype, %1 ], [ %7, %6 ]
  %4 = tail call i32 @strcmp(ptr noundef nonnull dereferenceable(1) %0, ptr noundef nonnull dereferenceable(1) %3) #17
  %5 = icmp eq i32 %4, 0
  br i1 %5, label %9, label %6

6:                                                ; preds = %2
  %7 = getelementptr i8, ptr %.08, i64 24
  %8 = load ptr, ptr %7, align 8
  %.not = icmp eq ptr %8, null
  br i1 %.not, label %9, label %2, !llvm.loop !4

9:                                                ; preds = %6, %2
  %.06 = phi ptr [ %.08, %2 ], [ null, %6 ]
  ret ptr %.06
}